#include <math.h>
#include <stdio.h>
#include <stdlib.h>
#include <string.h>
#include <iostream>
using namespace std;


int jiaogu(int a)
{
     if(a==1)
     {
             cout<<"End"<<endl;
             return 0;
     }
     else
     {
         if(a%2==0)
         {
               cout<<a<<"/"<<2<<"="<<a/2<<endl;;
               return jiaogu(a/2);
         }
         else
         {
             cout<<a<<"*"<<3<<"+"<<1<<"="<<(a*3+1)<<endl;
             return jiaogu(a*3+1);
         }
     }
}

int main()
{
    int number;
    cin>>number;
    jiaogu(number);
    return 0;
}
